; Function Attrs: mustprogress uwtable
define void @_ZN8proxygen15HTTPSessionBase31initCodecHeaderIndexingStrategyEv(ptr noundef nonnull align 8 dereferenceable(1582) %this) local_unnamed_addr #3 align 2 {
entry:
  %controller_ = getelementptr inbounds i8, ptr %this, i64 1512
  %0 = load ptr, ptr %controller_, align 8
  %tobool.not = icmp eq ptr %0, null
  br i1 %tobool.not, label %if.end, label %if.then

if.then:                                          ; preds = %entry
  %vtable = load ptr, ptr %0, align 8
  %vfn = getelementptr inbounds i8, ptr %vtable, i64 88
  %1 = load ptr, ptr %vfn, align 8
  %call = tail call noundef ptr %1(ptr noundef nonnull align 8 dereferenceable(8) %0)
  %vtable3 = load ptr, ptr %this, align 8
  %vfn4 = getelementptr inbounds i8, ptr %vtable3, i64 136
  %2 = load ptr, ptr %vfn4, align 8
  tail call void %2(ptr noundef nonnull align 8 dereferenceable(1582) %this, ptr noundef %call)
  br label %if.end

if.end:                                           ; preds = %if.then, %entry
  ret void
}